; Function Attrs: mustprogress nounwind uwtable
define hidden noundef ptr @_ZN14JfrThreadLocal10dcmd_arenaEP10JavaThread(ptr nocapture noundef %0) local_unnamed_addr #0 align 2 {
  %2 = getelementptr inbounds i8, ptr %0, i64 656
  %3 = load ptr, ptr %2, align 8
  %.not = icmp eq ptr %3, null
  br i1 %.not, label %4, label %6

4:                                                ; preds = %1
  %5 = tail call noundef ptr @_Z12AllocateHeapm8MEMFLAGSN17AllocFailStrategy13AllocFailEnumE(i64 noundef 48, i8 noundef zeroext 16, i32 noundef 0) #13
  tail call void @_ZN5ArenaC1E8MEMFLAGSNS_3TagEm(ptr noundef nonnull align 8 dereferenceable(48) %5, i8 noundef zeroext 16, i8 noundef zeroext 0, i64 noundef 984) #13
  store ptr %5, ptr %2, align 8
  br label %6

6:                                                ; preds = %1, %4
  %.0 = phi ptr [ %5, %4 ], [ %3, %1 ]
  ret ptr %.0
}